; Function Attrs: null_pointer_is_valid sspstrong uwtable
define internal range(i32 2, 1) i32 @dissect_ccm_dsp(ptr noundef %0, ptr readnone captures(none) %1, ptr noundef %2, ptr readnone captures(none) %3) #0 {
  %5 = tail call ptr @proto_tree_get_parent(ptr noundef %2)
  tail call void (ptr, ptr, ...) @proto_item_append_text(ptr noundef %5, ptr noundef nonnull @.str.751)
  %6 = tail call zeroext i8 @tvb_get_uint8(ptr noundef %0, i32 noundef 3)
  %7 = load i32, ptr @hf_ccm_dsp_option, align 4
  %8 = zext i8 %6 to i32
  %9 = tail call ptr @proto_tree_add_item(ptr noundef %2, i32 noundef %7, ptr noundef %0, i32 noundef 4, i32 noundef %8, i32 noundef 0)
  %10 = load i32, ptr @ett_ccm_dsp_option, align 4
  %11 = tail call ptr @proto_item_add_subtree(ptr noundef %9, i32 noundef %10)
  %12 = tail call zeroext i8 @tvb_get_uint8(ptr noundef %0, i32 noundef 4)
  %13 = load i32, ptr @hf_ccm_dsp_strength_count, align 4
  %14 = tail call ptr @proto_tree_add_item(ptr noundef %11, i32 noundef %13, ptr noundef %0, i32 noundef 4, i32 noundef 1, i32 noundef 0)
  %.not = icmp eq i8 %12, 0
  br i1 %.not, label %._crit_edge, label %.lr.ph.preheader

.lr.ph.preheader:                                 ; preds = %4
  %15 = add i8 %12, 5
  br label %.lr.ph

.lr.ph:                                           ; preds = %.lr.ph.preheader, %.lr.ph
  %.036 = phi i32 [ %17, %.lr.ph ], [ 5, %.lr.ph.preheader ]
  %16 = load i32, ptr @hf_ccm_dsp_strength, align 4
  %17 = add nuw nsw i32 %.036, 1
  %18 = tail call ptr @proto_tree_add_item(ptr noundef %11, i32 noundef %16, ptr noundef %0, i32 noundef %.036, i32 noundef 1, i32 noundef 0)
  %lftr.wideiv = trunc i32 %17 to i8
  %exitcond.not = icmp eq i8 %15, %lftr.wideiv
  br i1 %exitcond.not, label %._crit_edge, label %.lr.ph, !llvm.loop !70

._crit_edge:                                      ; preds = %.lr.ph, %4
  %.0.lcssa = phi i32 [ 5, %4 ], [ %17, %.lr.ph ]
  %19 = load i32, ptr @hf_ccm_dsp_e_flag, align 4
  %20 = tail call ptr @proto_tree_add_item(ptr noundef %11, i32 noundef %19, ptr noundef %0, i32 noundef %.0.lcssa, i32 noundef 1, i32 noundef 0)
  %21 = load i32, ptr @hf_ccm_dsp_m_flag, align 4
  %22 = tail call ptr @proto_tree_add_item(ptr noundef %11, i32 noundef %21, ptr noundef %0, i32 noundef %.0.lcssa, i32 noundef 1, i32 noundef 0)
  %23 = load i32, ptr @hf_ccm_dsp_tmax, align 4
  %24 = tail call ptr @proto_tree_add_item(ptr noundef %11, i32 noundef %23, ptr noundef %0, i32 noundef %.0.lcssa, i32 noundef 1, i32 noundef 0)
  %25 = load i32, ptr @hf_ccm_dsp_tmin, align 4
  %26 = tail call ptr @proto_tree_add_item(ptr noundef %11, i32 noundef %25, ptr noundef %0, i32 noundef %.0.lcssa, i32 noundef 1, i32 noundef 0)
  %27 = add i32 %.0.lcssa, 1
  ret i32 %27
}